ccollections
defaultdict
p1
(c__builtin__
list
p2
tRp3
Vcjairport-gy.com
p4
(lp5
VUUID
p6
asVfindicons.com
p7
(lp8
Vsessionid
p9
aVcsrftoken
p10
asVin.getclicky.com
p11
(lp12
Vcluid
p13
asVslickdeals.net
p14
(lp15
Vabt_uuid
p16
asVstackexchange.com
p17
(lp18
Vprov
p19
asVwww.vrbo.com
p20
(lp21
VVrboVisitorId
p22
aVVrboVisitorId#vid
p23
asVa.thoughtleadr.com
p24
(lp25
Vu
asVwww.modcloth.com
p26
(lp27
Vmc_id
p28
asVadsonar.com
p29
(lp30
VASLID
p31
asVppbsa.org
p32
(lp33
V__cfduid
p34
asVshop.ralawise.com
p35
(lp36
V.ASPXANONYMOUS
p37
asVwmconnect.com
p38
(lp39
VUNAUTHID
p40
asVhouseoftatouage.com
p41
(lp42
Vezstida
p43
asVwww.cau.edu
p44
(lp45
V.ASPXANONYMOUS
p46
asVmookie.listenernetwork.com
p47
(lp48
Vmc
p49
asVads.meredithads.com
p50
(lp51
VOAID
p52
asVp.d41.co
p53
(lp54
Vtuuid
p55
asVrelax.ru
p56
(lp57
Vanonym_sid
p58
asVwww0.svcdn.lasvegas.com
p59
(lp60
VCFTOKEN
p61
asVrsz.sk
p62
(lp63
VOAID
p64
asVjibjab.com
p65
(lp66
Vjj_t
p67
asVtrczr.widengle.com
p68
(lp69
V_wl
p70
asVdivasroom.com
p71
(lp72
V__cfduid
p73
asVyahoo-mbga.jp
p74
(lp75
VF
asVcrsspxl.com
p76
(lp77
Vgnmid
p78
asV5min.com
p79
(lp80
Vstorage_uuid
p81
asVtotalrewards.com
p82
(lp83
VTLTUID
p84
asVwww.jabong.com
p85
(lp86
Vbid
p87
aVPHPSESSID
p88
aVprudsys-uid
p89
asVwww.perrinecars.com
p90
(lp91
VvisitorId
p92
asVwww.visitdelaware.com
p93
(lp94
VCFTOKEN
p95
asVeventful.com
p96
(lp97
Vstsess
p98
asVgoogle.fr
p99
(lp100
VPREF#ID
p101
aVPREF#U
p102
asVsendgrid.com
p103
(lp104
Vsendgrid_frontend
p105
asVtracker.leadsius.com
p106
(lp107
V_ls_id_50387f9d16f39d37023c4880245b001f928605ab_71ef
p108
asVbike.whistlerblackcomb.com
p109
(lp110
VSC_ANALYTICS_GLOBAL_COOKIE
p111
asVdelivery.platform.switchads.com
p112
(lp113
VADJG
p114
aVMYTS
p115
aVAPP
p116
aVSWID
p117
asVwww.farfetch.com
p118
(lp119
Vwishcookie
p120
asVcitygridmedia.com
p121
(lp122
Vusrid
p123
asVwww.skassets.com
p124
(lp125
VOAID
p126
asVbing.com
p127
(lp128
VOrigMUID
p129
aVMUID
p130
asVtrovigo.com
p131
(lp132
VUserId
p133
asVwww.duesd.org
p134
(lp135
VCFTOKEN
p136
asVapi.instagram.com
p137
(lp138
Vcsrftoken
p139
asVwww.microsofttranslator.com
p140
(lp141
VcsId
p142
asVconvertro.com
p143
(lp144
Vcvo_sid1
p145
asVwww.moviesunlimited.com
p146
(lp147
VShopperManager%2Fmusite#ShopperManager%2Fmusite
p148
asVemeraldcitygowns.com
p149
(lp150
Vss_cid
p151
asVlive.streamtheworld.com
p152
(lp153
Vuuid
p154
asVwww.kabackmodelmanagement.com
p155
(lp156
VCFTOKEN
p157
asVorbitz.com
p158
(lp159
Vanon
p160
asVamxdt.com
p161
(lp162
Vamid
p163
asVlorealusa.com
p164
(lp165
VUserAuthentication#user_id
p166
asVbakfliptonneaucover.com
p167
(lp168
Vezstida
p169
asVwww.discas.net
p170
(lp171
VCEM
p172
asVphotobucket.com
p173
(lp174
Vpb_features
p175
asVgc.com
p176
(lp177
Vcsrftoken
p178
asVads.yahoo.com
p179
(lp180
Vuid#_hmac
p181
asVrfihub.com
p182
(lp183
Va8
p184
aVa11
p185
aVa1
p186
aVa5
p187
aVo
aVa2
p188
aVa7
p189
asVmbusa.com
p190
(lp191
VMBUSA_UUID
p192
asVembed.spotify.com
p193
(lp194
Vspu
p195
asVsensic.net
p196
(lp197
Vdmisrvy_respondent
p198
asVapi.taps.io
p199
(lp200
V__tsid
p201
asVverticalscope.com
p202
(lp203
Vhalid
p204
asVlistrakbi.com
p205
(lp206
Vscasid-100021
p207
aVscasid-358948
p208
aVscasid-156395
p209
aVscasid-834349
p210
aVscasid-100005
p211
aVscasid-969649
p212
asVtoukoucity.to
p213
(lp214
VToukoucityTicket
p215
asVcnnmoney.trc.taboola.com
p216
(lp217
Vtaboola_user_id
p218
asVmusicthinktank.com
p219
(lp220
Vss_cid
p221
asVcharter.net
p222
(lp223
Vsession
p224
asVdiz.smoothjazz.com
p225
(lp226
VOAID
p227
asVjust-eat.ie
p228
(lp229
Vje_t
p230
aVje_t#i
p231
asVkayfeldmar.koenigrubloff.com
p232
(lp233
VBrokerOffice_Session#SessionCookie
p234
asVgoogle.nl
p235
(lp236
VPREF#ID
p237
aVPREF#S
p238
asVgenieessp-a.com
p239
(lp240
Vdss
p241
aVkccs
p242
aVg
aVfreakout
p243
aVlogly
p244
asVpixel.redditmedia.com
p245
(lp246
Vazk
p247
asVibeu2.mookie1.com
p248
(lp249
Vibkukiuno#s
p250
asVsupport.na.square-enix.com
p251
(lp252
VvId
p253
asVic-live.com
p254
(lp255
Vicsid10050
p256
aVicsid1055
p257
aVicsid10013
p258
aVicsid6
p259
aVicsid10070
p260
aVicsid1839
p261
aVicsid1920
p262
aVicsid1349
p263
aVicsid9
p264
aVicsid5
p265
aVicsid10048
p266
aVicsid1636
p267
aVicsid10060
p268
aVicpid
p269
aVicsid4
p270
aVicsid10049
p271
aVicsid10065
p272
aVicsid1506
p273
aVicsid7
p274
aVicsid1567
p275
asVgraphics.arkivmusic.com
p276
(lp277
VOAID
p278
asVdropbox.com
p279
(lp280
Vt
asVwww2.music-tags.com
p281
(lp282
VOAID
p283
asVhealthline.com
p284
(lp285
Vhln-viz
p286
asVscanscout.com
p287
(lp288
Vuid
p289
aVUIGL
p290
asVshop.avon.com
p291
(lp292
Vshoppermanager#shopperid
p293
asVwww.monotaro.com
p294
(lp295
Vsid
p296
aVc
asVwww.kayak.com
p297
(lp298
Vkayak
p299
asVmetrigo.com
p300
(lp301
Vid
p302
asVr.migch.com
p303
(lp304
VOAID
p305
asVlulu.com
p306
(lp307
VcustomerSessionGuid
p308
asVhire.jobvite.com
p309
(lp310
Vguestidc
p311
asVad.mundialsportsnetworks.com
p312
(lp313
VAVPUID
p314
asVshopsocially.com
p315
(lp316
Vss_visitor_id
p317
asVwww.brookhaven.org
p318
(lp319
V.ASPXANONYMOUS
p320
asVevents.ctpost.com
p321
(lp322
Vwelcome
p323
asVgirlsgonewild.com
p324
(lp325
Vnats_sess
p326
asVcoolsavings.com
p327
(lp328
Vcid
p329
asVwww.kinston.com
p330
(lp331
VtmpPersistentuserId
p332
asVcdrlabs.com
p333
(lp334
Vphpbb3_fqhdg_sid
p335
asVads.garden.org
p336
(lp337
VOAID
p338
asVads.cannaclicks.com
p339
(lp340
VOAID
p341
asVproptp.net
p342
(lp343
VPHPSESSID
p344
asVinternet.org
p345
(lp346
Vdatr
p347
asVstore.purefishing.com
p348
(lp349
Vdwanonymous_981a7f1a36d67a6e9669acbbc60bc120
p350
asVwww.shutterstock.com
p351
(lp352
Vssssidd
p353
asVgroupon.ie
p354
(lp355
Vb
asVwww.picmonkey.com
p356
(lp357
Vcsrftoken
p358
asVintentiq.com
p359
(lp360
VintentIQ
p361
asVadserver2.exgfnetwork.com
p362
(lp363
VOAID
p364
asVtaobao.com
p365
(lp366
Vt
asVgirlsnextdoor.com
p367
(lp368
Vtu
p369
asVp.liadm.com
p370
(lp371
Vrid_1
p372
aVrid_2813
p373
aVtuuid
p374
asVwww.uline.com
p375
(lp376
VUlineCom#SessionID
p377
asVntent.com
p378
(lp379
VERA_C1
p380
asVr1.literotica.com
p381
(lp382
VOAID
p383
asVmeteorsolutions.com
p384
(lp385
Vuid
p386
asVmotherless.com
p387
(lp388
Vkkk
p389
asVwww.ecommercebytes.com
p390
(lp391
VOAID
p392
asVautoblog.com
p393
(lp394
VUNAUTHID
p395
asVero-advertising.com
p396
(lp397
Vuniqid
p398
asVart.com
p399
(lp400
VCustSessionID
p401
aVPID
p402
aVap#authtoken
p403
asVwww.apta.org
p404
(lp405
VEktGUID
p406
asVhexagram.com
p407
(lp408
VfAdv
p409
asVc.bing.com
p410
(lp411
VSRM_M
p412
aVSRM_B
p413
asVents24.com
p414
(lp415
Vmediaid
p416
asVwww.flora2000.com
p417
(lp418
Vns_visitor
p419
asVwww.mmacreative.com
p420
(lp421
VOAID
p422
asVwwwprd.doa.louisiana.gov
p423
(lp424
VCFTOKEN
p425
asVticketmaster.ie
p426
(lp427
VBID
p428
asVrutarget.ru
p429
(lp430
VuserId
p431
asVwww.gianteagle.com
p432
(lp433
V.ASPXANONYMOUS
p434
asVwhaleserver.com
p435
(lp436
VOAID
p437
asVwww.joann.com
p438
(lp439
Vdwanonymous_8b96780e73e6d6750039da7bd7fa9419
p440
asVads.optimise.net
p441
(lp442
VOAID
p443
asVsleeptrain.com
p444
(lp445
V_klbdi
p446
asVwww.marineland.com
p447
(lp448
V.ASPXANONYMOUS
p449
aVecfUser
p450
aVecfUser#id
p451
asVtracking.okwave.com
p452
(lp453
Vntk
p454
asVads.p161.net
p455
(lp456
Vtuuid
p457
asVflite.com
p458
(lp459
V__uuc2
p460
asVadserv1.mannixmarketing.com
p461
(lp462
VOAID
p463
asVanalytics.spongecell.com
p464
(lp465
Vspongekey
p466
asVflyfrontier.com
p467
(lp468
VTLTUID
p469
asVameblo.jp
p470
(lp471
VP
asVmsnbc.com
p472
(lp473
Vvid
p474
asVwww.houzz.com
p475
(lp476
Vv
asVmyextremeresearch.com
p477
(lp478
Vtu
p479
asVapi.taboola.com
p480
(lp481
Vtaboola_user_id
p482
asVadserver.racingone.com
p483
(lp484
VAVPUID
p485
asVwww.homes.co.jp
p486
(lp487
Veuid
p488
asVchappel.videogamer.com
p489
(lp490
VOAID
p491
asVforbes.com
p492
(lp493
Vfps
p494
asVlivejasmin.com
p495
(lp496
VtppId
p497
asVonclickads.net
p498
(lp499
VOAID
p500
aVGOAID
p501
asVher.ie
p502
(lp503
V__cfduid
p504
asVwww.hancockfabrics.com
p505
(lp506
Vdwanonymous_8ebc58b673408dd0362f626355b01823
p507
asVctnsnet.com
p508
(lp509
Vcid
p510
asVgoogle.com.hk
p511
(lp512
VPREF#U
p513
aVPREF#ID
p514
asVfidelity.com
p515
(lp516
Vv1st
p517
asVwww.scout.me
p518
(lp519
VPHPSESSID
p520
asVsingleturks.com
p521
(lp522
Vcfid
p523
asVwww.iconfinder.com
p524
(lp525
Vcsrftoken
p526
asVsaymedia.com
p527
(lp528
Vadnxs_uid
p529
asVmad2.brandreachsys.com
p530
(lp531
VOAID
p532
asVdw.wmt.co
p533
(lp534
Vdwtc
p535
asVwwd.com
p536
(lp537
Vbrowser_guid
p538
asVtracker.azet.sk
p539
(lp540
Vuid
p541
asVstore.usgs.gov
p542
(lp543
VTLTUID
p544
asVwww.iconarchive.com
p545
(lp546
Vpid
p547
asVus.wa.ui-portal.com
p548
(lp549
Vwa
p550
asVdialcode.org
p551
(lp552
V__cfduid
p553
asVwww.southshorehospital.org
p554
(lp555
VCFID
p556
asVnfpa.org
p557
(lp558
VOAX
p559
asVmaps.yahoo.com
p560
(lp561
VMYCFL
p562
aVMYCFL#d
p563
asVtec.advertserve.com
p564
(lp565
VAVPUID
p566
asVwww.revolveclothing.com
p567
(lp568
Valttesting
p569
asVfool.com
p570
(lp571
VTookie#T
p572
aVv1st
p573
asVgo.na.sage.com
p574
(lp575
VELOQUA
p576
aVELOQUA#GUID
p577
asVwww.sleeptrain.com
p578
(lp579
Vdwanonymous_117557774ea57332679d745b963fb2da
p580
asVvimeo.com
p581
(lp582
Vvuid
p583
asVmembership.square-enix.com
p584
(lp585
Vsemclientid
p586
asVlanebryant.com
p587
(lp588
VPIPELINE_SESSION_ID
p589
asVaffiliates.mgmresorts.com
p590
(lp591
VMasterKey1
p592
asVclickfuse.com
p593
(lp594
VCF_ID
p595
asVtellapart.com
p596
(lp597
V__cmbGU
p598
asVwww.victoriassecret.com
p599
(lp600
VUID
p601
asVwww.ffslaw.com
p602
(lp603
VCFTOKEN
p604
asVads.stickyadstv.com
p605
(lp606
VOAID
p607
asVwebcindario.com
p608
(lp609
V__muid
p610
asVmonster.com
p611
(lp612
Vv1st
p613
asVcivicscience.com
p614
(lp615
Vballotbox/respondent_id
p616
asVadserving.jp
p617
(lp618
Vuid
p619
asVopenx.grantracing.com
p620
(lp621
VOAID
p622
asVwtp101.com
p623
(lp624
Vtuuid
p625
asVmiarroba.es
p626
(lp627
V__muid
p628
asVgoogle.es
p629
(lp630
VPREF#ID
p631
aVPREF#U
p632
asVwww.match.com
p633
(lp634
VMatchSession#UMID
p635
asVwww.womenonweb.org
p636
(lp637
Vz_pid
p638
asVwikia-beacon.com
p639
(lp640
Vbeacon
p641
asVcitysearch.com
p642
(lp643
Vusrid
p644
asVcaesarsac.com
p645
(lp646
VTLTUID
p647
asVzompmedia.com
p648
(lp649
V__cfduid
p650
asVetoyota.net
p651
(lp652
Vtkey
p653
asVsocial.technet.microsoft.com
p654
(lp655
V.ASPXANONYMOUS
p656
asVb.aol.com
p657
(lp658
VMUNAUTHID
p659
asVyintai.com
p660
(lp661
Vyt_cps_t#gd
p662
asVawe.sm
p663
(lp664
Vsnowball
p665
asVtracking.waterfrontmedia.com
p666
(lp667
VGWFM#G
p668
aVGWFM#U
p669
asVvip.adstatic.com
p670
(lp671
Vas_uuid
p672
asVwww.mountainkhakis.com
p673
(lp674
VCFTOKEN
p675
asVatlantichealthsystems.org
p676
(lp677
Vclid
p678
asVwww.discountcoffee.com
p679
(lp680
Vfrontend
p681
asVgoogle.ru
p682
(lp683
VPREF#ID
p684
aVPREF#U
p685
asVfarecompare.com
p686
(lp687
VOAX
p688
asVkeisu02.eproof.com
p689
(lp690
VadGardenerV
p691
asVwww.fly.com
p692
(lp693
VosVisitor
p694
asVprogressive.com
p695
(lp696
VSITESERVER#ID
p697
aVTLTUID
p698
asVgree.jp
p699
(lp700
Vgcid#S
p701
aVgcid
p702
aVgcid#B
p703
asVdelivery.razoradserver.com
p704
(lp705
VOAID
p706
asVancestry.ca
p707
(lp708
VANCUUID
p709
asVvideohub.tv
p710
(lp711
VUIGL
p712
aVuid
p713
asVwww.vermontteddybear.com
p714
(lp715
VCOMMERCE_SITE_Identity
p716
asVssl-hints.netflame.cc
p717
(lp718
VfcP.d3d6c7efa741b455#U
p719
asVretailmenot.com
p720
(lp721
Vvisitor
p722
aVuserQualifier
p723
aVuserFlashVersion
p724
aVdeviceFingerprint
p725
asVrightmove.co.uk
p726
(lp727
Vpermuserid
p728
asVlocal.yahoo.com
p729
(lp730
VYLDetails#lcscb
p731
asVtnol.com
p732
(lp733
VCFID
p734
asVaskville.amazon.com
p735
(lp736
Va009_askville
p737
asVcc.simplereach.com
p738
(lp739
V__srui
p740
asVwww.amigo-us.com
p741
(lp742
VCFTOKEN
p743
asVcosmi.io
p744
(lp745
Vcid_tokutokushop
p746
asVexpedia.fr
p747
(lp748
VMC1#GUID
p749
aVMC1
p750
asVbluecava.com
p751
(lp752
Vg
aVmachine#id
p753
aVmx
p754
asVwww.haleybuickgmcmidlo.com
p755
(lp756
VvisitorId
p757
asVanandtech.com
p758
(lp759
Vatusessionw
p760
asVadnxs.com
p761
(lp762
Vanj#9
p763
asVbeeg.com
p764
(lp765
Vuniqid
p766
asVeyeviewads.com
p767
(lp768
V__ev_uid
p769
asVburstnet.com
p770
(lp771
VBI80058
p772
aVBI79962
p773
aVBI77912
p774
aVBI80319
p775
aVBI77335
p776
aVBI80059
p777
aVBI75128
p778
aVBI79281
p779
asVlivingdirect.mkt6182.com
p780
(lp781
VVIEW
p782
asVgamestop.com
p783
(lp784
VRES_TRACKINGID
p785
asVning.com
p786
(lp787
Vxn_visitor
p788
asVchow.com
p789
(lp790
VXCLGFbrowser
p791
asVshop.panasonic.com
p792
(lp793
Vdmid
p794
asVtivo.com
p795
(lp796
V_klbdi
p797
aVtivo_kn_is_prospect#__uh
p798
asVbloggapedia.com
p799
(lp800
V__cfduid
p801
asVmerchenta.com
p802
(lp803
Vmerchenta
p804
asVmtvnservices.com
p805
(lp806
Vvmn_uuid
p807
asVwww.ninewest.com
p808
(lp809
Vdwanonymous_f4bc0dad60ecc7437100d3c4fa0a2f38
p810
asVadmaym.com
p811
(lp812
Vfid
p813
aVvi
p814
asVhf.enctoday.com
p815
(lp816
VCFTOKEN
p817
asVwww.mccoyblossomfh.com
p818
(lp819
VCFTOKEN
p820
aVCFID
p821
asVwww.chesterfield.gov
p822
(lp823
VEktGUID
p824
asVfood52.com
p825
(lp826
V__cfduid
p827
asVwww.niagarafallsusa.org
p828
(lp829
VCFTOKEN
p830
asVstaradvertiser.com
p831
(lp832
Vlsn#uid
p833
asVstore.steampowered.com
p834
(lp835
Vbrowserid
p836
asVnews4.thomasnet.com
p837
(lp838
VOAID
p839
asVsquarespace.com
p840
(lp841
VSS_MID
p842
aVss_cid
p843
asVwww.ginnys.com
p844
(lp845
VPIPELINE_SESSION_ID
p846
asVpopmog.com
p847
(lp848
Vuser_token
p849
asVads.agorafinancial.com
p850
(lp851
VOAID
p852
asVdmtracker.com
p853
(lp854
Vv1st
p855
asVcastanet.kiban.paperboy.co.jp
p856
(lp857
Vcastanet
p858
asVallposters.com
p859
(lp860
VPID
p861
aVCID
p862
asVfiatspider.com
p863
(lp864
Vphpbb3_n8tbm_sid
p865
asVwww.swfa.org.au
p866
(lp867
VCFTOKEN
p868
asVtravelocity.com
p869
(lp870
Vtyrg1st
p871
aVMC1#GUID
p872
aVMC1
p873
asVadbrn.com
p874
(lp875
Vtuuid
p876
asVprivatehomeclips.com
p877
(lp878
V__cfduid
p879
asVwww.algebra.com
p880
(lp881
Valgebra_session
p882
asVthecovemovie.com
p883
(lp884
VANONID40333
p885
asVwww.oldnavy.com
p886
(lp887
VunknownShopperId
p888
asVads.ibibo.com
p889
(lp890
VOAID
p891
asVagency.thesinglesnetwork.com
p892
(lp893
VOAID
p894
asVengine.adzerk.net
p895
(lp896
Vazk
p897
asVwww.coleman.com
p898
(lp899
VEktGUID
p900
asVact.ameba.jp
p901
(lp902
VA
asVwww.rightmove.co.uk
p903
(lp904
Vrmmvpspo_138
p905
asVwp.pl
p906
(lp907
Vgusid
p908
asVadingo.jp.eimg.jp
p909
(lp910
VID
p911
asVedmunds.com
p912
(lp913
Vedmunds
p914
asVwww.midnightvelvet.com
p915
(lp916
VPIPELINE_SESSION_ID
p917
asVhuffingtonpost.jp
p918
(lp919
VUNAUTHID
p920
asVmoviefone.com
p921
(lp922
VUNAUTHID
p923
asVourtime.com
p924
(lp925
VUMID
p926
asVadelement.com
p927
(lp928
VOAID
p929
asVgumtree.com
p930
(lp931
Vgt_p
p932
asVsharkiesinc.com
p933
(lp934
VSS_MID
p935
aVss_cid
p936
asVwww.accesstrade.net
p937
(lp938
Vn
asVwwv4ez0n.com
p939
(lp940
V__cfduid
p941
asVwww.eteamz.com
p942
(lp943
VCFTOKEN
p944
asVsportsmangement.com
p945
(lp946
Vclid
p947
asVwatch32.com
p948
(lp949
V__cfduid
p950
asVwww.waterworkspub.com
p951
(lp952
VCFTOKEN
p953
asVthisav.com
p954
(lp955
V__cfduid
p956
asVengine.4dsply.com
p957
(lp958
VIUID
p959
asVwww.canstockphoto.com
p960
(lp961
Vc_ref
p962
asVlodgemfg.com
p963
(lp964
VANONID151182
p965
asVturkishpersonals.com
p966
(lp967
Vcfid
p968
asVpubmatic.com
p969
(lp970
VKRTBCOOKIE_653
p971
aVKRTBCOOKIE_153
p972
asVengadget.com
p973
(lp974
VUNAUTHID
p975
asVqvc.com
p976
(lp977
VPrefID
p978
asVgoogle.it
p979
(lp980
VPREF#ID
p981
aVPREF#U
p982
asVdelivery.ad.newsnow.net
p983
(lp984
VMYTS
p985
aVSTQ
p986
aVAPP
p987
aVADJG
p988
aVSWID
p989
aVTDSK
p990
asVbeacon.samsclub.com
p991
(lp992
Vbtc
p993
asVsync.shinobi.jp
p994
(lp995
Vninja_dsp_uid
p996
asVgenieesspv.jp
p997
(lp998
Vfreakout
p999
aVdss
p1000
aVlogly
p1001
aVkccs
p1002
aVg
asVcustomwerks.net
p1003
(lp1004
Vasi
p1005
asVpzd.rakuten.co.jp
p1006
(lp1007
VWMONID
p1008
asVgoogle.ie
p1009
(lp1010
VPREF#ID
p1011
aVPREF#U
p1012
asVibm.com
p1013
(lp1014
VPrefID
p1015
asVannunci.ebay.it
p1016
(lp1017
Vsshh
p1018
aVluckyNumber
p1019
asVtested.com
p1020
(lp1021
VUNAUTHID
p1022
asVsimplereach.com
p1023
(lp1024
V__srui
p1025
asVwww.msn.com
p1026
(lp1027
VSRCHUID#GUID
p1028
asVgamespot.com
p1029
(lp1030
VXCLGFbrowser
p1031
asVnbcnews.com
p1032
(lp1033
Vvid
p1034
asVbankrate.com
p1035
(lp1036
VOAX
p1037
asVadsbro.com
p1038
(lp1039
Vuskt
p1040
asVwww.buildinggreen.com
p1041
(lp1042
VCFTOKEN
p1043
asVsacbeelabs.com
p1044
(lp1045
Vsbapi-cid
p1046
asVdash.37signals.com
p1047
(lp1048
V_beanstalk_uuid
p1049
asVwww.a-lmotorsports.com
p1050
(lp1051
V.ASPXANONYMOUS
p1052
asVx.fidelity-media.com
p1053
(lp1054
VOAID
p1055
asVnetwork.bazaarvoice.com
p1056
(lp1057
VBVID
p1058
asVautopartswarehouse.com
p1059
(lp1060
VuserID
p1061
aV__cfduid
p1062
asVwww.lasvegas.com
p1063
(lp1064
VCFTOKEN
p1065
asVwww.skyscanner.com
p1066
(lp1067
Vsstrack
p1068
aVacq
p1069
aVpreferences
p1070
asVwww.thehardwarehut.com
p1071
(lp1072
VmyCookie
p1073
asVmusicnotes.com
p1074
(lp1075
VMusicnotes%2F#uid
p1076
asVdeqwas-dsp.net
p1077
(lp1078
Vstamp
p1079
asVaqua-gulf.com
p1080
(lp1081
VCFTOKEN
p1082
asVspiceworks.com
p1083
(lp1084
V_swnid
p1085
asVlocal.com
p1086
(lp1087
Vlocalcom#uid
p1088
asVcx.msn.com
p1089
(lp1090
VSRCHUID#GUID
p1091
asVads.oddschecker.com
p1092
(lp1093
VOAID
p1094
asVwww.blogger.com
p1095
(lp1096
VPREF#U
p1097
asVomtrdc.net
p1098
(lp1099
Vv1st
p1100
asVstreema.com
p1101
(lp1102
Vsessionid
p1103
aVcsrftoken
p1104
asVgsimedia.net
p1105
(lp1106
VPrefID
p1107
asVthisis50.com
p1108
(lp1109
Vxn_visitor
p1110
asVneobux.com
p1111
(lp1112
VCFTOKEN
p1113
asVwhowhere.com
p1114
(lp1115
Vdiktfc
p1116
asVcart.upgpet.com
p1117
(lp1118
VecfUser#id
p1119
aV.ASPXANONYMOUS
p1120
asVplanethollywoodresort.com
p1121
(lp1122
VTLTUID
p1123
asVowneriq.net
p1124
(lp1125
Vgguuid
p1126
asVl.qq.com
p1127
(lp1128
Vcm_cookie
p1129
aV_cm_id
p1130
aVappuser
p1131
asVorganiccolorsystems.com
p1132
(lp1133
V__cfduid
p1134
asVebay.com.au
p1135
(lp1136
Vlucky9
p1137
asVwww.graduate.ucf.edu
p1138
(lp1139
VEktGUID
p1140
asVjtb.co.jp
p1141
(lp1142
VANALYS#AnalysisNo
p1143
asVzdnet.com
p1144
(lp1145
VXCLGFbrowser
p1146
asVzillow.com
p1147
(lp1148
Vabtest
p1149
asVtoutapp.com
p1150
(lp1151
Vlinker_guid
p1152
asVthesearchagency.net
p1153
(lp1154
Vtsav883
p1155
aVtsav817
p1156
aVtsav715
p1157
asVebags.com
p1158
(lp1159
V__VisitorId
p1160
asVwww.purplemath.com
p1161
(lp1162
VOAID
p1163
asVwww.hopkinsmedicine.org
p1164
(lp1165
VCFTOKEN
p1166
asVeyeota.net
p1167
(lp1168
Vtuuid
p1169
asVwww.shopsbt.com
p1170
(lp1171
Vmm5-s-basket-id
p1172
asVcompany-target.com
p1173
(lp1174
Vtuuid
p1175
asVbeacon.stage.walmart.com
p1176
(lp1177
Vbtc
p1178
asVanalytics.tout.com
p1179
(lp1180
Vsession_id
p1181
asVamazon.com
p1182
(lp1183
Vx-wl-uid
p1184
asVflux.com
p1185
(lp1186
Vvmn_uuid
p1187
aVFTUID
p1188
asVsmallanimalchannel.com
p1189
(lp1190
VOAX
p1191
asVadready.com
p1192
(lp1193
Vcuid
p1194
asVcbn.com
p1195
(lp1196
VOAX
p1197
asVwww.travelnerd.com
p1198
(lp1199
Vnwid
p1200
asVmygpuid.com
p1201
(lp1202
VOAID
p1203
aVd_ad_propellerads_com
p1204
aVd_rtrgt2_com
p1205
aVd_rtbpop_com
p1206
aVd_onclickads_net
p1207
asVpinterest.com
p1208
(lp1209
Vcsrftoken
p1210
asVinstagram.com
p1211
(lp1212
Vcsrftoken
p1213
asVrecs.atgsvcs.com
p1214
(lp1215
VatgRecVisitorId
p1216
asVdnpdmp.jp
p1217
(lp1218
Vuid
p1219
asVrealliving.com
p1220
(lp1221
VrBW-ListingSearch-410365
p1222
asVproflowers.com
p1223
(lp1224
VPFC_BrowserId
p1225
aVPFC_ShoppingCartContentID
p1226
asVsokmil.com
p1227
(lp1228
VAFURO1
p1229
asVwww.eureka.com
p1230
(lp1231
V.ASPXANONYMOUS
p1232
asVwww.princetonmini.com
p1233
(lp1234
VvisitorId
p1235
asVafy11.net
p1236
(lp1237
Va
asVwebstat.com
p1238
(lp1239
VwebStat_53445
p1240
aVwebStat_60926_mv
p1241
aVwebStat_60926
p1242
aVwebStat_53445_mv
p1243
asVfiverr.com
p1244
(lp1245
Vu_guid
p1246
asVtremorhub.com
p1247
(lp1248
Vtvid
p1249
aVtv_UIGL
p1250
asVwww.store-mix.com
p1251
(lp1252
Vstore-mix_Cookie
p1253
asVwww.hud.gov
p1254
(lp1255
VCFTOKEN
p1256
asVsonicgames.cc
p1257
(lp1258
V__cfduid
p1259
asVonet.pl
p1260
(lp1261
Vonet_cid
p1262
asVmsn.com
p1263
(lp1264
VOrigMUID
p1265
aVMC1#GUID
p1266
asVtower.jp
p1267
(lp1268
Vtracking2
p1269
asVwidget.storystack.com
p1270
(lp1271
Vtoken-783
p1272
asVadm.shinobi.jp
p1273
(lp1274
Vninja_adm_uid
p1275
aVninja_adm_df_uid
p1276
aVninja_adm_po_uid
p1277
aVninja_adm_iw_uid
p1278
aVninja_adm_sp_uid
p1279
asVengine.streamate.doublepimp.com
p1280
(lp1281
VIUID
p1282
asVsolvemedia.com
p1283
(lp1284
V_sscn_a
p1285
asVsp.gmossp-sp.jp
p1286
(lp1287
VdeviceIdentifier
p1288
asVwww.asrm.org
p1289
(lp1290
VEktGUID
p1291
asVmmtro.com
p1292
(lp1293
VMRUID
p1294
aVFUID
p1295
asVcomcast.com
p1296
(lp1297
VPSC#UCID
p1298
asVapi.unthem.com
p1299
(lp1300
Vvisitor
p1301
asVfout.jp
p1302
(lp1303
Vuid
p1304
asVpch.com
p1305
(lp1306
Vpci
p1307
asVmediafire.com
p1308
(lp1309
Vukey
p1310
asVgsspat.jp
p1311
(lp1312
Vlogly
p1313
aVdss
p1314
aVkccs
p1315
aVg
aVfreakout
p1316
asVsfgamworld.com
p1317
(lp1318
Vsfgamworld_sid
p1319
asVavis.com
p1320
(lp1321
VPrefID
p1322
asVchainreactioncycles.com
p1323
(lp1324
V__cfduid
p1325
asVmy.jobs
p1326
(lp1327
Vaguid
p1328
asVezakus.net
p1329
(lp1330
VaisakosId
p1331
asVads.pointroll.com
p1332
(lp1333
VPRID
p1334
asVwww.zedge.net
p1335
(lp1336
Vzid
p1337
asVamazon.co.uk
p1338
(lp1339
Vx-wl-uid
p1340
aVubid-acbuk
p1341
asVwww.urologyhealth.org
p1342
(lp1343
VCFTOKEN
p1344
asVwww.boxtops4education.com
p1345
(lp1346
VSC_ANALYTICS_GLOBAL_COOKIE
p1347
asVplacehold.it
p1348
(lp1349
V__cfduid
p1350
asVwww.djuhsd.org
p1351
(lp1352
VCFTOKEN
p1353
asVgoogle.de
p1354
(lp1355
VPREF#U
p1356
asVrightaction.com
p1357
(lp1358
Vdspu:3982
p1359
asVsensing.honeywell.com
p1360
(lp1361
VTEMP_MEM_UUID
p1362
asVopenstat.net
p1363
(lp1364
VVISID
p1365
asVads.creative-serving.com
p1366
(lp1367
Vtuuid
p1368
asVtravel.rakuten.co.jp
p1369
(lp1370
Vashiato-travel-id
p1371
asVcarmax.com
p1372
(lp1373
VKmxVisitor_0#VisitorID
p1374
aVPrefID
p1375
asVadsystem4.gazeta.ie
p1376
(lp1377
VOAID
p1378
asVlivingsocial.com
p1379
(lp1380
Vvanity_id
p1381
asVmayoclinic.org
p1382
(lp1383
VOAX
p1384
asVwww.simplyhired.com
p1385
(lp1386
Vcsrftoken
p1387
asVdiscovercard.com
p1388
(lp1389
Vv1st
p1390
asVas2.autoforums.com
p1391
(lp1392
VOAID
p1393
asVbestbuy.com
p1394
(lp1395
VUID
p1396
asVus.playstation.com
p1397
(lp1398
VVISITORID
p1399
asVwww.sport-smart.com
p1400
(lp1401
Vsession%5Fid
p1402
asVwww.hoursmap.com
p1403
(lp1404
VMT_SESS
p1405
asVupclick.com
p1406
(lp1407
VumID#clientID
p1408
asVt.brand-server.com
p1409
(lp1410
Vtuuid
p1411
asVwww.linkedin.com
p1412
(lp1413
Vbscookie
p1414
asVww2.nsnbc.com
p1415
(lp1416
VpID
p1417
asVwww.fishtanksdirect.com
p1418
(lp1419
VanonymousID
p1420
aVchkvalues
p1421
asVads.mediade.sk
p1422
(lp1423
VSMARTTAG_UID
p1424
asVmembers.directbuy.com
p1425
(lp1426
V__CSCookie
p1427
asVwww.thelimited.com
p1428
(lp1429
Vdwanonymous_b1d609a2a52ab5a1e52ce64b99e123df
p1430
asVpollster.pl
p1431
(lp1432
Vad-time
p1433
asVmapquest.com
p1434
(lp1435
Vpsession
p1436
aVUNAUTHID
p1437
asVadult.similarsites.com
p1438
(lp1439
VUTGv2
p1440
asVtracking-lr.adsafety.net
p1441
(lp1442
Vtid
p1443
asVapi.adsnative.com
p1444
(lp1445
V_uuid
p1446
asVsuperpages.com
p1447
(lp1448
VOAX
p1449
asVhelium.adextent.com
p1450
(lp1451
VUserID
p1452
asVrules.atgsvcs.com
p1453
(lp1454
VatgRecVisitorId
p1455
asVensighten.com
p1456
(lp1457
Vuuid
p1458
asVspeedtest.net
p1459
(lp1460
Vstnetsid
p1461
asVautotrader.co.uk
p1462
(lp1463
Vuserid#ID
p1464
aVuser#ID
p1465
aVuser#HASH
p1466
asVwww.hugedomains.com
p1467
(lp1468
VCFTOKEN
p1469
aVHD
p1470
asVyoutube.com
p1471
(lp1472
VVISITOR_INFO1_LIVE
p1473
asVad-m.asia
p1474
(lp1475
Vuid
p1476
asVmarketwatch.com
p1477
(lp1478
Vkayla#g
p1479
asVyelp.ie
p1480
(lp1481
Vyuv
p1482
asVcosme.net
p1483
(lp1484
V@COSME_VISITOR#VISITOR_ID
p1485
asVbestwesternnorthcarolina.com
p1486
(lp1487
VCFID
p1488
asVhealth.harvard.edu
p1489
(lp1490
Vvi
p1491
asVpswec.com
p1492
(lp1493
Vpsrw
p1494
aVtuuid
p1495
asV123greetings.com
p1496
(lp1497
VOAX
p1498
asVwww.pages05.net
p1499
(lp1500
VVIEW
p1501
asVbegun.ru
p1502
(lp1503
Vembryo
p1504
asVwww.thompsonvw.net
p1505
(lp1506
VvisitorId
p1507
asVwww.kenware.net
p1508
(lp1509
VvisitorId
p1510
asVcrow.herald-dispatch.com
p1511
(lp1512
VOAID
p1513
asVaffiliateprogram.keywordspy.com
p1514
(lp1515
Vroia_c
p1516
asVwww.cashbackforex.com
p1517
(lp1518
VID
p1519
asVmrskin.com
p1520
(lp1521
Vskticket
p1522
asVwww.hotelscombined.com
p1523
(lp1524
Vvisitor#id
p1525
asVgo.mobtrks.com
p1526
(lp1527
VOAID
p1528
asVmts.mansion.com
p1529
(lp1530
Vuguid
p1531
asVodesk.com
p1532
(lp1533
V__cfduid
p1534
asVsportcount.com
p1535
(lp1536
Vcart_session
p1537
asVtentaculos.net
p1538
(lp1539
V_PM_UNIQID
p1540
asVhandstogether.org
p1541
(lp1542
Vss_cid
p1543
asVwww.fredericks.com
p1544
(lp1545
Vdwanonymous_bb888d1a17ff1ddb89f5138ed182eb26
p1546
asVnsg.symantec.com
p1547
(lp1548
VbuySAFE#UniqueID
p1549
asVadjust-net.jp
p1550
(lp1551
VADJUST-GUID
p1552
asVevents.mysanantonio.com
p1553
(lp1554
Vwelcome
p1555
asVvip.com
p1556
(lp1557
VPAPVisitorId
p1558
asVf.blogads.com
p1559
(lp1560
VOAID
p1561
asVsingleparentmeet.com
p1562
(lp1563
VUMID
p1564
asVwww.visitmyrtlebeach.com
p1565
(lp1566
VCFID
p1567
aVCFTOKEN
p1568
asVwww.shopouaf.com
p1569
(lp1570
Vhtscallerid
p1571
asVwww.usa-people-search.com
p1572
(lp1573
VSession
p1574
asVexpedia.ie
p1575
(lp1576
VMC1
p1577
aVMC1#GUID
p1578
asVinterclick.com
p1579
(lp1580
Vuid#u
p1581
aVuid
p1582
asVads.undertone.com
p1583
(lp1584
VUTID
p1585
asVwww.diyupholsterysupply.com
p1586
(lp1587
Vmm5-DIY-basket-id
p1588
asVgmodmp.jp
p1589
(lp1590
Vuid
p1591
asVphysioworks.com.au
p1592
(lp1593
VANONID7049
p1594
asVdocstoc.com
p1595
(lp1596
Vuser_guid
p1597
aVmemguid.docstoc
p1598
asVesm1.net
p1599
(lp1600
Vabc
p1601
asVexpedia.it
p1602
(lp1603
VMC1#GUID
p1604
aVMC1
p1605
asVa.b3.ie
p1606
(lp1607
VOAID
p1608
asVblogtalkradio.com
p1609
(lp1610
VBTRListenGUID
p1611
aVBTRAnon
p1612
asVchristianity.com
p1613
(lp1614
V__cfduid
p1615
asVmatch.com
p1616
(lp1617
VPrefID
p1618
asVprudential.com
p1619
(lp1620
VVIGN_trail
p1621
asVrubiconproject.com
p1622
(lp1623
Vput_2188
p1624
aVput_3320
p1625
aVput_2271
p1626
aVput_3550
p1627
aVput_2132
p1628
aVput_2751
p1629
aVput_1902
p1630
aVput_1430
p1631
aVput_1994
p1632
aVput_2978
p1633
aVput_2249
p1634
aVput_2025
p1635
aVput_2689
p1636
aVput_2762
p1637
aVput_2307
p1638
aVput_2820
p1639
aVput_2810
p1640
aVput_2181
p1641
aVput_2260
p1642
aVput_3396
p1643
aVput_1986
p1644
aVput_2676
p1645
aVput_3504
p1646
asVsmaato.net
p1647
(lp1648
VSomaCookieUserId
p1649
asVwww.lafayettecourtesy.com
p1650
(lp1651
VvisitorId
p1652
asVcontextweb.com
p1653
(lp1654
VV
asVdmlimg.com
p1655
(lp1656
V__cfduid
p1657
asVgoogle.ca
p1658
(lp1659
VPREF#ID
p1660
aVPREF#U
p1661
asVib.mookie1.com
p1662
(lp1663
Vibkukiuno#s
p1664
asVcafemom.com
p1665
(lp1666
Vcafemomis
p1667
asVdevelopers.google.com
p1668
(lp1669
Vcsrftoken
p1670
asVbadges.instagram.com
p1671
(lp1672
Vcsrftoken
p1673
asVwww.samplelist.com
p1674
(lp1675
VSWFA.ID
p1676
asVwww.worldvitalrecords.com
p1677
(lp1678
Vwvrbid
p1679
asVspotlight.trulia.com
p1680
(lp1681
Vtlftmusr
p1682
asVtrovi.com
p1683
(lp1684
VUserId
p1685
asVchaturbate.com
p1686
(lp1687
Vcsrftoken
p1688
asVmixlr.com
p1689
(lp1690
Vmixlr_session
p1691
asVangsrvr.com
p1692
(lp1693
Vuuid
p1694
asVmythings.com
p1695
(lp1696
Vckid
p1697
asVcheaptickets.com
p1698
(lp1699
Vanon
p1700
asVs2d6.com
p1701
(lp1702
Vdgm
p1703
asVjsrdn.com
p1704
(lp1705
Vu
asVd.peoplesearchads.com
p1706
(lp1707
VOAID
p1708
asVimpact-ad.jp
p1709
(lp1710
Vtuuid
p1711
asVlonelyplanet.com
p1712
(lp1713
VlpUid
p1714
asVwww.berkley-fishing.com
p1715
(lp1716
Vdwanonymous_981a7f1a36d67a6e9669acbbc60bc120
p1717
asVwww.puritan.com
p1718
(lp1719
VSale5for2SessionCookie#xs
p1720
asVtrck.dlpo.jp
p1721
(lp1722
VDLPOGUser434
p1723
asVtrack.nextuser.com
p1724
(lp1725
V_nutm_mc
p1726
asVwww2.buildinggreen.com
p1727
(lp1728
VSESS1be44dd5dc67382db88e848ddb7e2cd2
p1729
asVashleymadison.com
p1730
(lp1731
Vamvid
p1732
asVads2.zeusclicks.com
p1733
(lp1734
VAVPUID
p1735
asVwww.ireland.com
p1736
(lp1737
VSC_ANALYTICS_GLOBAL_COOKIE
p1738
asVuline.com
p1739
(lp1740
VTLTUID
p1741
asVwww.landsofamerica.com
p1742
(lp1743
VCFTOKEN
p1744
aVCFID
p1745
asVwww.comodo.com
p1746
(lp1747
Vsha
p1748
asVrtrgt2.com
p1749
(lp1750
VOAID
p1751
asVistockphoto.com
p1752
(lp1753
VIS_MARIN_UUID
p1754
asVmedibaad.com
p1755
(lp1756
VMNS_u
p1757
asVfp.tellapart.com
p1758
(lp1759
V__fpid
p1760
asVwww.gamesradar.com
p1761
(lp1762
Vcsrftoken
p1763
asVhelp.netflix.com
p1764
(lp1765
VhcVisitorId
p1766
asVwww.coldwatercreek.com
p1767
(lp1768
VCWCState#cartUid
p1769
aVCWCState#customerUid
p1770
asVwww.evite.com
p1771
(lp1772
Vcsrftoken
p1773
asVprecisionrepro.net
p1774
(lp1775
VANONID832344
p1776
asVskooprsites.com
p1777
(lp1778
V__cfduid
p1779
asVwww.sage.com
p1780
(lp1781
VSC_ANALYTICS_GLOBAL_COOKIE
p1782
asVoptorb.com
p1783
(lp1784
Vxa#"u
p1785
aVxa
p1786
asVwww.privacyguard.com
p1787
(lp1788
VVisitor
p1789
asVnuggad.net
p1790
(lp1791
Vci
p1792
aVdp
p1793
asVautoanything.com
p1794
(lp1795
Vvisitor_id
p1796
asVdhgate.com
p1797
(lp1798
Vb2b_cart_sid
p1799
asVsxp.smartclip.net
p1800
(lp1801
Vuuid
p1802
asVc.getsmartcontent.com
p1803
(lp1804
Vgsci
p1805
asVwww.ncbcg.com
p1806
(lp1807
VvisitorId
p1808
asVestara.com
p1809
(lp1810
Vfs_nocache_guid
p1811
asV7search.com
p1812
(lp1813
VSurferID
p1814
asVlogmein.com
p1815
(lp1816
VLMIorigin#guid
p1817
asVwww.livingdirect.com
p1818
(lp1819
Vdwanonymous_3eaff55cc4c4a1dc8ac98888b5e927f3
p1820
asVwww.lifeisgood.com
p1821
(lp1822
Vdwanonymous_b75e31ed1c9b60b9e7f6fa83d478455b
p1823
asVprinceton-nj-2604.theupsstorelocal.com
p1824
(lp1825
VFWUniqueVisitor#FWUniqueVisitor
p1826
asVhancockfabrics.com
p1827
(lp1828
Vdwanonymous_8ebc58b673408dd0362f626355b01823
p1829
asVnytimes.com
p1830
(lp1831
Vuuid
p1832
aVnyt-a
p1833
asVdailyfinance.com
p1834
(lp1835
VUNAUTHID
p1836
asVbanners.yatrainc.com
p1837
(lp1838
VOAID
p1839
asVchoicestream.com
p1840
(lp1841
VCSAnywhere
p1842
asVwww.bigotires.com
p1843
(lp1844
Vbigotires.comUQ2
p1845
asVwww.audible.com
p1846
(lp1847
Vsession-id
p1848
asVvube.com
p1849
(lp1850
V_SESSID
p1851
aVSESSID
p1852
asVkizu.org
p1853
(lp1854
V__cfduid
p1855
asVgamefaqs.com
p1856
(lp1857
VXCLGFbrowser
p1858
asVautotrader.com
p1859
(lp1860
Vv1st
p1861
asVperfectmarket.com
p1862
(lp1863
Vpm_fb_194684353967840_state
p1864
asVdailymotion.com
p1865
(lp1866
Vv1st
p1867
asVd-suite.jp
p1868
(lp1869
Vuid
p1870
asVinnity.com
p1871
(lp1872
ViUUID
p1873
asVancestry.com
p1874
(lp1875
VANCUUID
p1876
asVsprint.com
p1877
(lp1878
VDYN_USER_CONFIRM
p1879
asVwww.irishjobs.ie
p1880
(lp1881
Vijaav
p1882
asVfreewalkers.org
p1883
(lp1884
Vxn_visitor
p1885
asVahtrk.com
p1886
(lp1887
Vtrk
p1888
asVvisiblemeasures.com
p1889
(lp1890
Vuid
p1891
asVlast.fm
p1892
(lp1893
VAnonTrack
p1894
aVAnonSession
p1895
asVwww.sportcount.com
p1896
(lp1897
Vcart_session
p1898
asVwww.quill.com
p1899
(lp1900
VAnonID
p1901
asVengine.phn.doublepimp.com
p1902
(lp1903
VIUID
p1904
asVmotherhoodonadime.com
p1905
(lp1906
V__cfduid
p1907
asVzazzle.com
p1908
(lp1909
Vus
p1910
asVhsn.com
p1911
(lp1912
V.P
p1913
aVTLTUID
p1914
asVwww.wwptoday.com
p1915
(lp1916
V.ASPXANONYMOUS
p1917
asVwww.fixya.com
p1918
(lp1919
VUniquGuid
p1920
asVcollserve.com
p1921
(lp1922
VcollserveMD
p1923
asVgravity.com
p1924
(lp1925
Vvaguid
p1926
asVmixi.jp
p1927
(lp1928
V_auid
p1929
asVbtrll.com
p1930
(lp1931
VBR_APS
p1932
asVnetshelter.net
p1933
(lp1934
Vzdbb
p1935
asVdelivery.switchadhub.com
p1936
(lp1937
VADJG
p1938
aVAPP
p1939
aVMYTS
p1940
aVTDSK
p1941
asV163.com
p1942
(lp1943
V_ntes_nuid
p1944
asVwww.tv.com
p1945
(lp1946
Vcsrftoken
p1947
asVtheguardian.com
p1948
(lp1949
Vbwid
p1950
asVtbo.com
p1951
(lp1952
VOAX
p1953
asVwww.hondapartsnow.com
p1954
(lp1955
VGuidCookie
p1956
aVGuidCookie#guid
p1957
asVwww.valueline.com
p1958
(lp1959
VEktGUID
p1960
asVwufoo.com
p1961
(lp1962
Vep202
p1963
asVautotraderclassics.com
p1964
(lp1965
Vv1st
p1966
asVgssp-a.com
p1967
(lp1968
Vkccs
p1969
aVfreakout
p1970
aVlogly
p1971
aVg
aVdss
p1972
asVw55c.net
p1973
(lp1974
Vwfivefivec
p1975
asVblackboard.westerntc.edu
p1976
(lp1977
Vs_session_id
p1978
aVsession_id
p1979
asVwww.boats.net
p1980
(lp1981
VShoppingCartUserSession
p1982
asVsocial.microsoft.com
p1983
(lp1984
V.ASPXANONYMOUS
p1985
asVpnc.com
p1986
(lp1987
VPrefID
p1988
asVwww.trivago.ie
p1989
(lp1990
Vtid
p1991
asVas.ebz.io
p1992
(lp1993
Vsp
p1994
asVwww62.atwiki.jp
p1995
(lp1996
VPHPSESSID
p1997
asVsp1.convertro.com
p1998
(lp1999
Vcvo_vtc
p2000
asVtracking.servebom.com
p2001
(lp2002
Vservebom_uuid
p2003
asVrtbpop.com
p2004
(lp2005
VOAID
p2006
aVGOAID
p2007
asVidtargeting.com
p2008
(lp2009
Vrtt
p2010
asVt23.intelliad.de
p2011
(lp2012
Viact
p2013
asVbleacherreport.com
p2014
(lp2015
V_unqid
p2016
asVluckyorange.com
p2017
(lp2018
V__cfduid
p2019
asVwsc1.webspectator.com
p2020
(lp2021
V___ws_gid
p2022
asVtnvacation.com
p2023
(lp2024
VPHPSESSID
p2025
asVdl.vntg.jp
p2026
(lp2027
VINID
p2028
asVbusiness.comcast.com
p2029
(lp2030
VPrefID
p2031
asVhuffingtonpost.com
p2032
(lp2033
VUNAUTHID
p2034
asV10y5gehv.com
p2035
(lp2036
V__cfduid
p2037
asVwww.cigna.com
p2038
(lp2039
VTLTUID
p2040
asVlogly.co.jp
p2041
(lp2042
Vuid
p2043
asVwww.dropbox.com
p2044
(lp2045
Vgvc
p2046
asVexpedia.de
p2047
(lp2048
VMC1#GUID
p2049
asVwww.dealsonwheels.com
p2050
(lp2051
VCAKEPHP
p2052
asVaudienceiq.com
p2053
(lp2054
Vuid
p2055
asVwww.travelalaska.com
p2056
(lp2057
VSC_ANALYTICS_GLOBAL_COOKIE
p2058
asVviziofanzone.com
p2059
(lp2060
Vcttg
p2061
asVyelp.com
p2062
(lp2063
V__cfduid
p2064
asVs.m2pub.com
p2065
(lp2066
Vtuuid
p2067
asVwww.networksolutions.com
p2068
(lp2069
Vvrsnsf
p2070
asVen-us.fluke.com
p2071
(lp2072
VvmSessionId
p2073
asVgumgum.com
p2074
(lp2075
Vvst
p2076
asVgoogle.lt
p2077
(lp2078
VPREF#ID
p2079
aVPREF#U
p2080
asVwww.panynj.gov
p2081
(lp2082
VCFTOKEN
p2083
asVgigazine.asia
p2084
(lp2085
VOAID
p2086
asVancestry.co.uk
p2087
(lp2088
VANCUUID
p2089
asVads.adk2.com
p2090
(lp2091
Vtuuid
p2092
asVgap.com
p2093
(lp2094
VunknownShopperId
p2095
asVshesgonnasquirt.com
p2096
(lp2097
Vnats_sess
p2098
asVpcmag.com
p2099
(lp2100
Vzdbb
p2101
asVurbanext.illinois.edu
p2102
(lp2103
Vcfid
p2104
asVtimesunioncenter-albany.com
p2105
(lp2106
VTIMESUNI
p2107
asVmandatory.com
p2108
(lp2109
VUNAUTHID
p2110
asVnationalcar.com
p2111
(lp2112
VTLTUID
p2113
asVmeetup.com
p2114
(lp2115
VMEETUP_CSRF
p2116
asVzulily.com
p2117
(lp2118
Vfrontend
p2119
asVwww.dnainfo.com
p2120
(lp2121
VOAID
p2122
asVexpedia.co.uk
p2123
(lp2124
VMC1
p2125
aVMC1#GUID
p2126
asVimrworldwide.com
p2127
(lp2128
VIMRID
p2129
asVunited.com
p2130
(lp2131
Vv1st
p2132
asVwww.manta.com
p2133
(lp2134
Vcust_id
p2135
asVwebsudoku.com
p2136
(lp2137
Vseed
p2138
asVeharmony.com
p2139
(lp2140
V__cfduid
p2141
asVwww.thevintagelofts.com
p2142
(lp2143
VEktGUID
p2144
asVtheladbible.com
p2145
(lp2146
V__cfduid
p2147
asVwww.realtor.com
p2148
(lp2149
VPPIDForGptAds
p2150
asV254a.com
p2151
(lp2152
Vtuuid
p2153
asVwww.movies.com
p2154
(lp2155
VEndecaSessionId
p2156
asVcoolsport.tv
p2157
(lp2158
V__cfduid
p2159
asVadvfn.com
p2160
(lp2161
VADVFNUID
p2162
asVluminate.com
p2163
(lp2164
Vseed
p2165
asVexpedia.com.au
p2166
(lp2167
VMC1
p2168
aVMC1#GUID
p2169
asVairfarewatchdog.com
p2170
(lp2171
Vuu_persist
p2172
asVparsely.com
p2173
(lp2174
Vparsely_network_uuid
p2175
asVtickld.com
p2176
(lp2177
V__cfduid
p2178
asVwww.buybuybaby.com
p2179
(lp2180
VTLTUID
p2181
asVwww.chaparral-racing.com
p2182
(lp2183
VCMX_CART_ID
p2184
aVCommerceUser_Identity_Persistent
p2185
asVranker.com
p2186
(lp2187
VRS
p2188
asVdsply.com
p2189
(lp2190
Vub_uuid
p2191
asVlocalstore.net
p2192
(lp2193
V__cfduid
p2194
asVwww.yummly.com
p2195
(lp2196
Vyv
p2197
asVinbox.com
p2198
(lp2199
V_SRCHU
p2200
asVsiccode.com
p2201
(lp2202
VBCSICCODE
p2203
asVwww.moodys.com
p2204
(lp2205
V.ASPXANONYMOUS
p2206
asVzdbb.net
p2207
(lp2208
Vzdbb
p2209
asVaol.com
p2210
(lp2211
VUNAUTHID
p2212
asVebz.io
p2213
(lp2214
Vsp
p2215
asVnaturalhealth365.com
p2216
(lp2217
V__cfduid
p2218
asVadswizz.com
p2219
(lp2220
VOAID
p2221
asVforums.somethingawful.com
p2222
(lp2223
Vsessionhash
p2224
asVdeqwas.net
p2225
(lp2226
Vstamp
p2227
aVaf
p2228
asVsend.microad.jp
p2229
(lp2230
VTR
p2231
asVbrowardpalmbeach.com
p2232
(lp2233
VOAX
p2234
asVcaesarspalace.com
p2235
(lp2236
VTLTUID
p2237
asVrakuten.co.jp
p2238
(lp2239
VRt
p2240
asVsecde.trivago.com
p2241
(lp2242
Vtid
p2243
aV__pl_refid
p2244
asVlocalpha.com
p2245
(lp2246
V__cfduid
p2247
asVlocaltimes.info
p2248
(lp2249
V__cfduid
p2250
asVowldata.com
p2251
(lp2252
Vuid
p2253
asVneimanmarcus.com
p2254
(lp2255
VABTEST_COOKIE_CONFIRM
p2256
asVpawnation.com
p2257
(lp2258
VUNAUTHID
p2259
asVwww.marksandspencer.ie
p2260
(lp2261
Vdwanonymous_9526df160628c864e929eb2d7b633463
p2262
asVclubamerica.com.mx
p2263
(lp2264
V__cfduid
p2265
asVwww.hearts.com
p2266
(lp2267
V.ASPXANONYMOUS
p2268
asVgo.sonobi.com
p2269
(lp2270
V__uin_an
p2271
aV__uis
p2272
aV__uin_zv
p2273
asVwww.marriott.com
p2274
(lp2275
VMI_Visitor
p2276
asVanalyzer.dtiblog.com
p2277
(lp2278
Vvid
p2279
asVelicitapp.com
p2280
(lp2281
Vuser_id
p2282
asVsundaysky.com
p2283
(lp2284
Vsskyu
p2285
asVharvester.eu.square-enix.com
p2286
(lp2287
V_harv_uid
p2288
asVlivedoor.com
p2289
(lp2290
Vucd
p2291
asVwww.thumbtack.com
p2292
(lp2293
Vp
asVthecelebritypix.com
p2294
(lp2295
V__cfduid
p2296
asVmy.nanorep.com
p2297
(lp2298
Vu
asVadfp.send.microad.jp
p2299
(lp2300
VOAID
p2301
asVoodle.com
p2302
(lp2303
Vosid
p2304
asVbook.aavacations.com
p2305
(lp2306
VEZ_LIFETIME_TRACK
p2307
aVEZ_ABTK_LIFETIME
p2308
asVrealtruck.com
p2309
(lp2310
VPermID
p2311
asVcomodo.com
p2312
(lp2313
Vn_sha
p2314
asVcroscill.com
p2315
(lp2316
V__cfduid
p2317
asVeqads.com
p2318
(lp2319
VEQUser#UID
p2320
asVmarinsm.com
p2321
(lp2322
V_msuuid
p2323
asVwww.adp.com
p2324
(lp2325
VADPLeadCookie
p2326
asVestore.jp
p2327
(lp2328
VuniqID
p2329
asVseatgeek.com
p2330
(lp2331
Vsg_uuid
p2332
aVsixpack_client_id
p2333
asVfastapi.net
p2334
(lp2335
Vdsp
p2336
asVashiato.travel.rakuten.co.jp
p2337
(lp2338
VWMONID
p2339
asVhref.asia
p2340
(lp2341
Vkccs
p2342
aVlogly
p2343
aVg
aVfreakout
p2344
aVdss
p2345
asVwww.travelrepublic.ie
p2346
(lp2347
VtrpUTM
p2348
aVanonUserId
p2349
asVtdbank.com
p2350
(lp2351
VOAX
p2352
asVwww.lyst.com
p2353
(lp2354
Vanalytics
p2355
aVcsrftoken
p2356
asVwww.jllproperty.com.cn
p2357
(lp2358
VJLL.PropertyV30FSIS
p2359
asVtvguide.com
p2360
(lp2361
VTVGID
p2362
asVprcm.jp
p2363
(lp2364
Vguid
p2365
asVtagular.com
p2366
(lp2367
Vtgd
p2368
asVads.clrsrv.com
p2369
(lp2370
Vtuuid
p2371
asVaug.me
p2372
(lp2373
VAUGMEID
p2374
asVgoogle.com
p2375
(lp2376
VPREF#U
p2377
aVPREF#ID
p2378
asVamazon.co.jp
p2379
(lp2380
Vsession-id
p2381
aVx-wl-uid
p2382
asVadingo.jp
p2383
(lp2384
Vneoc
p2385
aVrmx
p2386
aVbrandscreen
p2387
aVp1whitelabel
p2388
aVfout
p2389
aVID
p2390
aVlogly
p2391
aVione
p2392
asVmindsaw.com
p2393
(lp2394
V__cfduid
p2395
asVads.webvet.com
p2396
(lp2397
VOAID
p2398
asVusairways.com
p2399
(lp2400
VTLTUID
p2401
asVugrish.com
p2402
(lp2403
Vclid
p2404
asVopenx.net
p2405
(lp2406
Vi
asVesws.ebsco.com
p2407
(lp2408
VTLTUID
p2409
asVe-planning.net
p2410
(lp2411
VE
asVadxpose.com
p2412
(lp2413
Vevlu
p2414
asVequine.com
p2415
(lp2416
Vuser#uid
p2417
asVwurfl.io
p2418
(lp2419
V_wiou
p2420
asVadmin.mnn.fyre.co
p2421
(lp2422
Vsessionid
p2423
asVdistrify.com
p2424
(lp2425
V__cfduid
p2426
asVt.qservz.com
p2427
(lp2428
Vquisma_t_uk
p2429
asVwww.ebscomags.com
p2430
(lp2431
VTLTUID
p2432
asVbandpage.com
p2433
(lp2434
Vbp_f
p2435
asVph.affinity.com
p2436
(lp2437
VPHUU
p2438
asVdelivery.swid.switchads.com
p2439
(lp2440
VMYTK
p2441
aVMYTS
p2442
aVTDSK
p2443
aVSTQ
p2444
asVcasino.com
p2445
(lp2446
Vmts_guid
p2447
asVtenakerpetcare.com
p2448
(lp2449
Vuser_cart
p2450
asVd.genealogyaffiliates.com
p2451
(lp2452
VOAID
p2453
asVseal.buysafe.com
p2454
(lp2455
VbuySAFE#UniqueID
p2456
asVprincetonkids.com
p2457
(lp2458
Vcfid
p2459
asVwww.gardeners.com
p2460
(lp2461
Vdwanonymous_bb9b4d219452d60e712f0b903cecd46e
p2462
asVsulekha.com
p2463
(lp2464
Vsulusrtrack
p2465
asVgoogle.pl
p2466
(lp2467
VPREF#U
p2468
aVPREF#ID
p2469
asVspineuniverse.com
p2470
(lp2471
VOAX
p2472
asV247realmedia.com
p2473
(lp2474
VOAX
p2475
asVveromi.com
p2476
(lp2477
V__cfduid
p2478
asVbpdnews.com
p2479
(lp2480
Vss_cid
p2481
aVSS_MID
p2482
asVfirestorage.jp
p2483
(lp2484
Vfid
p2485
asVad.propellerads.com
p2486
(lp2487
VGOAID
p2488
aVOAID
p2489
asVwww.catsrule.com
p2490
(lp2491
Vchkvalues
p2492
aVanonymousID
p2493
asVgridsumdissector.com
p2494
(lp2495
VGRIDSUMID
p2496
asVhomeshop18.com
p2497
(lp2498
VHS_ID
p2499
asVim.altervista.org
p2500
(lp2501
V__cfduid
p2502
asVcnet.com
p2503
(lp2504
VXCLGFbrowser
p2505
asVjanefonda.com
p2506
(lp2507
V__cfduid
p2508
asVwww.teacup.com
p2509
(lp2510
Vteacup-guid_access
p2511
asVagkn.com
p2512
(lp2513
Vuuid
p2514
asVcapitalone.com
p2515
(lp2516
Vv1st
p2517
asVwww.collectionsetc.com
p2518
(lp2519
VUserSegmentationIdID
p2520
asVhoobly.com
p2521
(lp2522
Vm
asVneighborfoodblog.com
p2523
(lp2524
V__cfduid
p2525
asVwww.itt-tech.edu
p2526
(lp2527
VCFTOKEN
p2528
asVticketmaster.com
p2529
(lp2530
VBID
p2531
asVadsrvr.org
p2532
(lp2533
VTDID
p2534
asVmybuys.com
p2535
(lp2536
Vmbd
p2537
aVmbc
p2538
asVcoupons.com
p2539
(lp2540
VB#s
p2541
asVmedhelp.org
p2542
(lp2543
Vguid
p2544
asVgo.padsdel.com
p2545
(lp2546
VGOAID
p2547
asVtorcache.net
p2548
(lp2549
Vtorcache_session
p2550
asVtravelocity.ca
p2551
(lp2552
VMC1#GUID
p2553
aVMC1
p2554
asVads.bahamasnet.com
p2555
(lp2556
VAVPUID
p2557
asVdid-it.com
p2558
(lp2559
Vx_didit_sid
p2560
asVtunein.com
p2561
(lp2562
Vrtid
p2563
asVads.capecod.travel
p2564
(lp2565
VOAID
p2566
asVtrackcmp.net
p2567
(lp2568
Vcmp609442426
p2569
asVadultfriendfinder.com
p2570
(lp2571
Vffadult_tr
p2572
aVAB_TRACKING
p2573
asVa.intentmedia.net
p2574
(lp2575
Vintentmedia_user_id
p2576
asVp.smartertravel.com
p2577
(lp2578
Vuid
p2579
aVsid
p2580
asVwww.littlecaesars.com
p2581
(lp2582
V.ASPXANONYMOUS
p2583
asVdelivery.ads.gdimg.net
p2584
(lp2585
VOAID
p2586
asVwww.terminatorlures.com
p2587
(lp2588
Vdwanonymous_c289076000678006b7b10a0fa6826bdc
p2589
asVcbs.com
p2590
(lp2591
VXCLGFbrowser
p2592
asVadview.pl
p2593
(lp2594
VAdViewPlBann
p2595
asVblogos.com
p2596
(lp2597
Vblogos_session
p2598
asVgigya.com
p2599
(lp2600
Vucid
p2601
asVmicrosoft.com
p2602
(lp2603
VMC1#GUID
p2604
aVv1st
p2605
asVc.ic.com.au
p2606
(lp2607
VOAID
p2608
asVreson8.com
p2609
(lp2610
VRCID
p2611
asVgoogle.co.jp
p2612
(lp2613
VPREF#ID
p2614
aVPREF#U
p2615
asVwww.briggsandstratton.com
p2616
(lp2617
VSC_ANALYTICS_GLOBAL_COOKIE
p2618
asVads.ad4game.com
p2619
(lp2620
VOAID
p2621
asVbandcamp.com
p2622
(lp2623
Vclient_id
p2624
asVcapitalone360.com
p2625
(lp2626
VTLTUID
p2627
asVadrta.com
p2628
(lp2629
V__aavi
p2630
asVprfct.co
p2631
(lp2632
Vpa_uid
p2633
asVtarget.com
p2634
(lp2635
VTealeafAkaUID
p2636
asVtagged.com
p2637
(lp2638
VB#b
p2639
aVS
asVimrk.net
p2640
(lp2641
Vuid
p2642
asVdelivery.racingpostads.com
p2643
(lp2644
VAPP
p2645
asVtaboola.com
p2646
(lp2647
Vtaboola_nr_td_user_id
p2648
aVt_gid
p2649
asVp.univide.com
p2650
(lp2651
Vuid
p2652
asVcaesars.com
p2653
(lp2654
VTLTUID
p2655
asVwww.tpnicdn.net
p2656
(lp2657
Vtpnid
p2658
asVaa.com
p2659
(lp2660
Vv1st
p2661
asVdelivery.myswitchads.com
p2662
(lp2663
VTDSK
p2664
aVMYTK
p2665
aVADJG
p2666
aVSTQ
p2667
aVAPP
p2668
aVMYTS
p2669
aVOAID
p2670
aVSWID
p2671
asVtechtarget.com
p2672
(lp2673
Vbk
p2674
asVindustrybrains.com
p2675
(lp2676
V__tuid
p2677
asVadsymptotic.com
p2678
(lp2679
VU
asVwix.com
p2680
(lp2681
V_wixCIDX
p2682
asVwww.faulknerbuickgmctrevose.com
p2683
(lp2684
VvisitorId
p2685
asVs.thebrighttag.com
p2686
(lp2687
Vbtv3.Xebcych
p2688
aVbtv3.bs
p2689
aVbt3
p2690
aVbtv3.am
p2691
aVbtv3.ic
p2692
aVbtpdb.4DPyaxM.YnJpZ2h0dGFnIHVzZXIgaWQ
p2693
aVbtv3.m6
p2694
aVbtv3.an
p2695
aVbtv3.hl
p2696
aVbtv3.ch
p2697
aVbtv3.tg
p2698
aVbtv3.as
p2699
aVbtv3.7xFjSaJ
p2700
aVbtv3.3a
p2701
aVbtv3.tu
p2702
aVbtv3.dx
p2703
aVbtv3.TvcNJor
p2704
aVbtv3.kenshooSocial
p2705
aVbtv3.qw8KooS
p2706
asVtripadvisor.co.uk
p2707
(lp2708
VTAUnique
p2709
asVwww.morrisathome.com
p2710
(lp2711
VCookieId
p2712
asVdownload.cnet.com
p2713
(lp2714
Vbwp2
p2715
asVwww.hbdirect.com
p2716
(lp2717
Vsession
p2718
asVadbuyer.com
p2719
(lp2720
VRTBAppNexusID#CookieId
p2721
aVRTBGoogleID#CookieId
p2722
aVUID#CookieId
p2723
asVtimesfreepress.com
p2724
(lp2725
VOAX
p2726
asVgoogle.com.br
p2727
(lp2728
VPREF#U
p2729
aVPREF#ID
p2730
asVtower.com
p2731
(lp2732
VCFTOKEN
p2733
asVca-as-1.agilone.com
p2734
(lp2735
VOAID
p2736
asVad.360yield.com
p2737
(lp2738
Vtuuid
p2739
asVpo.st
p2740
(lp2741
Vpost_uuid
p2742
asVmoviebat.com
p2743
(lp2744
V__cfduid
p2745
asVlijit.com
p2746
(lp2747
V_ljtrtb_5
p2748
aV_ljtrtb_27
p2749
aV_ljtrtb_33
p2750
aV_ljtrtb_23
p2751
aV_ljtrtb_12
p2752
aV_ljtrtb_36
p2753
aVljt_reader
p2754
aV_ljtrtb_15
p2755
aV_ljtrtb_29
p2756
aV_ljtrtb_2
p2757
asVhollandregional.com
p2758
(lp2759
V_klbdi
p2760
asVdell.com
p2761
(lp2762
VGAAnon
p2763
asVproduct.reflektion.com
p2764
(lp2765
Vanonymous_uid
p2766
asVads.verticalscope.com
p2767
(lp2768
VOAID
p2769
asVwww.zimbio.com
p2770
(lp2771
Vpzs
p2772
asVcreoads.com
p2773
(lp2774
V_creo
p2775
asVad6media.fr
p2776
(lp2777
Vi
asVssl.bing.com
p2778
(lp2779
VMUIDB
p2780
asVpipl.com
p2781
(lp2782
Vcsrftoken
p2783
aVsessionid
p2784
aVpiplv2#H
p2785
asVpredicta.net
p2786
(lp2787
Vpuid
p2788
asVjusthookup.com
p2789
(lp2790
Vhash
p2791
asV411.com
p2792
(lp2793
Vwp_pid
p2794
asVlavasoft.com
p2795
(lp2796
V1587#umID
p2797
aV1587#clientID
p2798
asVjobs.ie
p2799
(lp2800
Vavid
p2801
asVget.it
p2802
(lp2803
Vbid
p2804
asVwww.cheapair.com
p2805
(lp2806
Vhist
p2807
asVevents.webflowmetrics.com
p2808
(lp2809
Vuserid
p2810
asVhm.baidu.com
p2811
(lp2812
VHMACCOUNT
p2813
asVwww.njcu.edu
p2814
(lp2815
VEktGUID
p2816
asVworthyadvertising.com
p2817
(lp2818
VOAID
p2819
asVmyflashstore.net
p2820
(lp2821
V__cfduid
p2822
asVsurveymonkey.com
p2823
(lp2824
Vep202
p2825
asVwaplog.net
p2826
(lp2827
Vwaplog
p2828
asVwww.usfca.edu
p2829
(lp2830
VEktGUID
p2831
asVwww.no5.com.cn
p2832
(lp2833
Vguest#sign
p2834
asVwww.ecklerscorvette.com
p2835
(lp2836
Vfrontend
p2837
asVwww.budgetblinds.com
p2838
(lp2839
VEktGUID
p2840
asVwww.calicocorners.com
p2841
(lp2842
V.ASPXANONYMOUS
p2843
asVwww.fabswingers.com
p2844
(lp2845
Vtc#g
p2846
asVashleyrnadison.com
p2847
(lp2848
Vamvid
p2849
asVkau.li
p2850
(lp2851
Vunique_id
p2852
aVi
asVgoogle.co.uk
p2853
(lp2854
VPREF#U
p2855
aVPREF#ID
p2856
asVtv.com
p2857
(lp2858
VXCLGFbrowser
p2859
asVwww.adventureaquarium.com
p2860
(lp2861
V.ASPXANONYMOUS
p2862
asVww.spycheats.com
p2863
(lp2864
Vclid
p2865
asVbrilig.com
p2866
(lp2867
Vhph
p2868
asVad.auditude.com
p2869
(lp2870
VUID
p2871
asVrushcard.com
p2872
(lp2873
VDeviceBrowserId
p2874
asVwww.lifedynamics.com
p2875
(lp2876
VCFTOKEN
p2877
asVkulfoto.com
p2878
(lp2879
V__cfduid
p2880
asVebay.com
p2881
(lp2882
Vlucky9
p2883
asVwww.seethisinaction.com
p2884
(lp2885
VAVPUID
p2886
asVdemandmedia.trc.taboola.com
p2887
(lp2888
Vtaboola_user_id
p2889
asVshareaholic.com
p2890
(lp2891
Vc_id
p2892
asVmatch.rundsp.com
p2893
(lp2894
VRUN_ID
p2895
asVwww.googlecommerce.com
p2896
(lp2897
VPREF#S
p2898
aVPREF#ID
p2899
asVumm.edu
p2900
(lp2901
VSC_ANALYTICS_GLOBAL_COOKIE
p2902
asVwww.bananarepublic.com
p2903
(lp2904
VunknownShopperId
p2905
asVdelivery.enigmaadserver.com
p2906
(lp2907
VOAID
p2908
asVladsp.com
p2909
(lp2910
Vsmn_uid
p2911
asVbizographics.com
p2912
(lp2913
VBizoID
p2914
asVpool.adizio.com
p2915
(lp2916
Vtuuid
p2917
asVgoogle.co.in
p2918
(lp2919
VPREF#U
p2920
aVPREF#ID
p2921
asVu.mdotlabs.com
p2922
(lp2923
VuserID
p2924
asVcbsi.com
p2925
(lp2926
VXCLGFbrowser
p2927
asVclickbooth.com
p2928
(lp2929
V__ID
p2930
asVstreetball.com
p2931
(lp2932
Vxn_visitor
p2933
asVnordstrom.com
p2934
(lp2935
Vnordstrom#shopperid
p2936
asVrockyou.com
p2937
(lp2938
V_ryb
p2939
asVwww.eastersealsmidwest.org
p2940
(lp2941
V.ASPXANONYMOUS
p2942
asVwww.jerseygardens.com
p2943
(lp2944
VCFTOKEN
p2945
asVcolombiainternational.co
p2946
(lp2947
V__cfduid
p2948
asVacint.net
p2949
(lp2950
Vaid
p2951
asVeloqua.com
p2952
(lp2953
VELOQUA
p2954
aVELOQUA#GUID
p2955
asVexpedia.co.jp
p2956
(lp2957
VMC1#GUID
p2958
aVMC1
p2959
asVmyvisualiq.net
p2960
(lp2961
Vadsuu
p2962
asVcdxcf.info
p2963
(lp2964
V__cfduid
p2965
asVwww.newbalance.com
p2966
(lp2967
Vdwanonymous_f1a54ce182c498831467dac7f12df0bb
p2968
asVoutpersonals.com
p2969
(lp2970
VAB_TRACKING
p2971
aVout_tr
p2972
asVvindicogroup.advertserve.com
p2973
(lp2974
VAVPUID
p2975
asVswfa.com
p2976
(lp2977
VSWFA.ID
p2978
asVaudienceinsights.net
p2979
(lp2980
Vpus-idv
p2981
asV1800flowers.com
p2982
(lp2983
VShopperManagerEnterprise
p2984
asVbeta.myxer.fm
p2985
(lp2986
Vdev_id
p2987
asVtriggit.com
p2988
(lp2989
Vtrgu
p2990
asVfranklinbuildingsupply.com
p2991
(lp2992
VANONID325420
p2993
asVchase.com
p2994
(lp2995
Vv1st
p2996
asVads.bridgetrack.com
p2997
(lp2998
VBTA#GUID
p2999
aVBTA
p3000
asVbluekai.com
p3001
(lp3002
Vbku
p3003
asVgames.com
p3004
(lp3005
VUNAUTHID
p3006
asVagardenforthehouse.com
p3007
(lp3008
V__cfduid
p3009
asVcafepress.com
p3010
(lp3011
Vcpvr
p3012
aVcp-v
p3013
aVpid.guid
p3014
asVwww.onlinesheetmusic.com
p3015
(lp3016
V.ASPXANONYMOUS
p3017
asVengine.bang.doublepimp.com
p3018
(lp3019
VIUID
p3020
asVninja.co.jp
p3021
(lp3022
VNINJA_SESS
p3023
asVwww.realliving.com
p3024
(lp3025
VBrokerOffice_Session#SessionCookie
p3026
asVthetoptens.com
p3027
(lp3028
V__cfduid
p3029
asVwww.southeasternhonda.com
p3030
(lp3031
VvisitorId
p3032
asVxiti.com
p3033
(lp3034
Vidrxvr
p3035
asVeco-tag.jp
p3036
(lp3037
VUID
p3038
asVwebspectator.com
p3039
(lp3040
Vwebspectracking
p3041
asVads.mediatwo.com
p3042
(lp3043
VOAID
p3044
asVadapf.com
p3045
(lp3046
Vuid
p3047
asVanswersingenesis.org
p3048
(lp3049
Vcsrftoken
p3050
asVdewalt.com
p3051
(lp3052
VanonId
p3053
asVwww.pier1.com
p3054
(lp3055
Vdwanonymous_2d5ea9ecc35c69389a2b8033960c4fd0
p3056
asVwww.i.matheranalytics.com
p3057
(lp3058
Vsp
p3059
asVyahoo.net
p3060
(lp3061
Vtyrg1st
p3062
asVwww.courtesybuickgmc.com
p3063
(lp3064
VvisitorId
p3065
asVseethisinaction.com
p3066
(lp3067
VAVPUID
p3068
asVmodels.com
p3069
(lp3070
Vcfid
p3071
asVatemda.com
p3072
(lp3073
Vfid
p3074
aVvi
p3075
asVwww.visitestespark.com
p3076
(lp3077
VCFTOKEN
p3078
asVwellsfargo.com
p3079
(lp3080
Vv1st
p3081
asVuhs-hints.com
p3082
(lp3083
VOAID
p3084
asVwww.50states.com
p3085
(lp3086
Vuuid
p3087
asVstackoverflow.com
p3088
(lp3089
Vprov
p3090
asVwww.funtrivia.com
p3091
(lp3092
VCFTOKEN
p3093
asVwww.verizon.com
p3094
(lp3095
VPDSS#PflowId
p3096
asVaffiliates.mgmmirage.com
p3097
(lp3098
VMasterKey1
p3099
asVtoysrus.com
p3100
(lp3101
VOAX
p3102
asVcareerbuilder.com
p3103
(lp3104
VBID
p3105
asVact.pbs.org
p3106
(lp3107
VELOQUA#GUID
p3108
aVELOQUA
p3109
asVbooks.wwnorton.com
p3110
(lp3111
VEktGUID
p3112
asVfetchback.com
p3113
(lp3114
Vfbid
p3115
asVw.ahalogy.com
p3116
(lp3117
Va
asVciti.bridgetrack.com
p3118
(lp3119
VCitiBT%5F1
p3120
aVCitiBT
p3121
aVCitiBT#GUID
p3122
aVCitiBT%5F1#GUID
p3123
asVads.parkingpath.com
p3124
(lp3125
VOAID
p3126
asVads.ibtracking.com
p3127
(lp3128
VAVPUID
p3129
asVcrowdscience.com
p3130
(lp3131
V__csmv
p3132
aV__csv
p3133
asVsecuredvisit.com
p3134
(lp3135
Vsv_sid
p3136
asVfunorb.com
p3137
(lp3138
VJXWEBUID
p3139
asVwww.hao24.cn
p3140
(lp3141
VWMONID
p3142
asVtraditional-building.com
p3143
(lp3144
VOAX
p3145
asVgssprt.jp
p3146
(lp3147
Vlogly
p3148
aVg
aVkccs
p3149
aVfreakout
p3150
aVdss
p3151
asVdpmsrv.com
p3152
(lp3153
Vdpm_pxl
p3154
asVmarketplaces.vantagemedia.com
p3155
(lp3156
V_VMI
p3157
asVwww.gameofficials.net
p3158
(lp3159
VCFTOKEN
p3160
asVservesharp.net
p3161
(lp3162
VUUID
p3163
asVfacebook.com
p3164
(lp3165
Vdatr
p3166
asVmissiontour.org
p3167
(lp3168
V__cfduid
p3169
asVwww.mccoyblossomfunerals.com
p3170
(lp3171
VCFTOKEN
p3172
aVCFID
p3173
asVwww.gillettestadium.com
p3174
(lp3175
VCFTOKEN
p3176
asVwww.lumberliquidators.com
p3177
(lp3178
VPIPELINE_SESSION_ID
p3179
asVgenieessp.jp
p3180
(lp3181
Vlogly
p3182
aVg
aVfreakout
p3183
aVdss
p3184
aVkccs
p3185
asVnethugs.com
p3186
(lp3187
Vphpbb3_5745n_sid
p3188
asVbookit.advertserve.com
p3189
(lp3190
VAVPUID
p3191
asVrantlifestyle.com
p3192
(lp3193
Vvisid_incap_104771
p3194
asVkropka.onet.pl
p3195
(lp3196
Vonet_sgn
p3197
asVcams.com
p3198
(lp3199
Vcams_tr
p3200
aVAB_TRACKING
p3201
asVshop.wwe.com
p3202
(lp3203
Vdwanonymous_9c6b8d0e3fdb5fbf94b735ef79e6d9e4
p3204
asVtr.webantenna.info
p3205
(lp3206
Vwa
p3207
asVuniteagainstmalware.com
p3208
(lp3209
V__cfduid
p3210
asVwww.necconnect.org
p3211
(lp3212
Vtpnid
p3213
asVyashi.com
p3214
(lp3215
Vyshi
p3216
asVimiclk.com
p3217
(lp3218
Vuuid
p3219
asVwww.roblox.com
p3220
(lp3221
VGuestData#UserID
p3222
asVwww.batsunlimited.com
p3223
(lp3224
VanonymousID
p3225
aVchkvalues
p3226
asVtimeinc.trc.taboola.com
p3227
(lp3228
Vtaboola_user_id
p3229
asVwww.buyma.com
p3230
(lp3231
V_bom4g50s_7
p3232
asVwww.jstor.org
p3233
(lp3234
VMAID
p3235
asVhomes.com
p3236
(lp3237
VHCUSER
p3238
asVias.rakuten.co.jp
p3239
(lp3240
Vdispcid
p3241
asVpatch.com
p3242
(lp3243
VPAUTH
p3244
aVUNAUTHID
p3245
asVwww.nautica.com
p3246
(lp3247
Vdwanonymous_8c5371fabd8b48c7375db8a2da05dde4
p3248
asVask.frynge.com
p3249
(lp3250
Vid
p3251
asVcharter.com
p3252
(lp3253
VCHSG#__uh
p3254
asVfarfetch.com
p3255
(lp3256
VBIcookieID
p3257
aVSessionID
p3258
aVInstanceId
p3259
asVchatidcdn.com
p3260
(lp3261
V__cfduid
p3262
asVhardsextube.com
p3263
(lp3264
VPHPSESSID
p3265
aVhstgr
p3266
asVwww.bing.com
p3267
(lp3268
VMUIDB
p3269
aVSRCHUID#GUID
p3270
asVwww.adsurve.com
p3271
(lp3272
VOAID
p3273
asVwww.partyanimalinc.com
p3274
(lp3275
V.ASPXANONYMOUS
p3276
as.